; Function Attrs: mustprogress nounwind uwtable
define hidden noundef ptr @_ZN14Deoptimization17fetch_unroll_infoEP10JavaThreadi(ptr noundef %0, i32 noundef %1) local_unnamed_addr #0 align 2 {
  %3 = getelementptr inbounds i8, ptr %0, i64 1132
  %4 = load i32, ptr %3, align 4
  %5 = add nsw i32 %4, 1
  store i32 %5, ptr %3, align 4
  %6 = icmp eq i32 %1, 1
  br i1 %6, label %.split6, label %.split

.split6:                                          ; preds = %2
  tail call void @_ZN17StackWatermarkSet12after_unwindEP10JavaThread(ptr noundef nonnull %0) #22
  br label %.split

.split:                                           ; preds = %2, %.split6
  %.sink = phi i32 [ 1, %.split6 ], [ %1, %2 ]
  %7 = tail call noundef ptr @_ZN14Deoptimization24fetch_unroll_info_helperEP10JavaThreadi(ptr noundef nonnull %0, i32 noundef %.sink)
  %8 = getelementptr inbounds i8, ptr %0, i64 408
  %9 = load ptr, ptr %8, align 8
  %10 = getelementptr inbounds i8, ptr %9, i64 16
  %11 = load ptr, ptr %10, align 8
  %12 = load ptr, ptr %11, align 8
  %.not.i.i = icmp eq ptr %12, null
  br i1 %.not.i.i, label %_ZN17HandleMarkCleanerD2Ev.exit, label %13

13:                                               ; preds = %.split
  tail call void @_ZN10HandleMark17chop_later_chunksEv(ptr noundef nonnull align 8 dereferenceable(56) %9) #22
  %.pre.i.i = load ptr, ptr %10, align 8
  br label %_ZN17HandleMarkCleanerD2Ev.exit

_ZN17HandleMarkCleanerD2Ev.exit:                  ; preds = %.split, %13
  %14 = phi ptr [ %11, %.split ], [ %.pre.i.i, %13 ]
  %15 = getelementptr inbounds i8, ptr %9, i64 8
  %16 = load ptr, ptr %15, align 8
  %17 = getelementptr inbounds i8, ptr %16, i64 24
  store ptr %14, ptr %17, align 8
  %18 = getelementptr inbounds i8, ptr %9, i64 24
  %19 = load ptr, ptr %18, align 8
  %20 = load ptr, ptr %15, align 8
  %21 = getelementptr inbounds i8, ptr %20, i64 32
  store ptr %19, ptr %21, align 8
  %22 = getelementptr inbounds i8, ptr %9, i64 32
  %23 = load ptr, ptr %22, align 8
  %24 = load ptr, ptr %15, align 8
  %25 = getelementptr inbounds i8, ptr %24, i64 40
  store ptr %23, ptr %25, align 8
  ret ptr %7
}